; Function Attrs: mustprogress nofree norecurse nosync nounwind willreturn memory(argmem: readwrite, inaccessiblemem: readwrite) uwtable
define void @_ZN13duckdb_brotli32BrotliStoreUncompressedMetaBlockEiPKhmmmPmPh(i32 noundef %0, ptr noalias noundef readonly captures(none) %1, i64 noundef %2, i64 noundef %3, i64 noundef %4, ptr noalias noundef captures(none) %5, ptr noalias noundef captures(none) %6) local_unnamed_addr #5 {
  %8 = and i64 %3, %2
  tail call void @llvm.experimental.noalias.scope.decl(metadata !659)
  tail call void @llvm.experimental.noalias.scope.decl(metadata !662)
  %9 = load i64, ptr %5, align 8, !tbaa !3, !alias.scope !659, !noalias !662
  %10 = lshr i64 %9, 3
  %11 = getelementptr inbounds nuw i8, ptr %6, i64 %10
  %12 = load i8, ptr %11, align 1, !tbaa !7, !alias.scope !662, !noalias !659
  %13 = zext i8 %12 to i64
  store i64 %13, ptr %11, align 1, !noalias !659
  %14 = add i64 %9, 1
  %15 = icmp eq i64 %4, 1
  br i1 %15, label %.thread.i.i, label %16

16:                                               ; preds = %7
  %17 = trunc i64 %4 to i32
  %18 = add i32 %17, -1
  %19 = tail call range(i32 0, 33) i32 @llvm.ctlz.i32(i32 %18, i1 true)
  %20 = icmp ult i32 %18, 32768
  %narrow.i.i = sub nuw nsw i32 35, %19
  %21 = lshr i32 %narrow.i.i, 2
  %22 = zext nneg i32 %21 to i64
  br i1 %20, label %.thread.i.i, label %_ZL38BrotliStoreUncompressedMetaBlockHeadermPmPh.exit

.thread.i.i:                                      ; preds = %16, %7
  br label %_ZL38BrotliStoreUncompressedMetaBlockHeadermPmPh.exit

_ZL38BrotliStoreUncompressedMetaBlockHeadermPmPh.exit: ; preds = %16, %.thread.i.i
  %23 = phi i64 [ 4, %.thread.i.i ], [ %22, %16 ]
  %24 = add nsw i64 %23, -4
  %25 = shl nuw nsw i64 %23, 2
  %26 = add i64 %4, -1
  %27 = lshr i64 %14, 3
  %28 = getelementptr inbounds nuw i8, ptr %6, i64 %27
  %29 = load i8, ptr %28, align 1, !tbaa !7, !alias.scope !664, !noalias !667
  %30 = zext i8 %29 to i64
  %31 = and i64 %14, 7
  %32 = shl nsw i64 %24, %31
  %33 = or i64 %32, %30
  store i64 %33, ptr %28, align 1, !noalias !667
  %34 = add i64 %9, 3
  %35 = lshr i64 %34, 3
  %36 = getelementptr inbounds nuw i8, ptr %6, i64 %35
  %37 = load i8, ptr %36, align 1, !tbaa !7, !alias.scope !669, !noalias !672
  %38 = zext i8 %37 to i64
  %39 = and i64 %34, 7
  %40 = shl i64 %26, %39
  %41 = or i64 %40, %38
  store i64 %41, ptr %36, align 1, !noalias !672
  %42 = add i64 %25, %34
  %43 = lshr i64 %42, 3
  %44 = getelementptr inbounds nuw i8, ptr %6, i64 %43
  %45 = load i8, ptr %44, align 1, !tbaa !7, !alias.scope !674, !noalias !677
  %46 = zext i8 %45 to i64
  %47 = and i64 %42, 7
  %48 = shl nuw nsw i64 1, %47
  %49 = or i64 %48, %46
  store i64 %49, ptr %44, align 1, !noalias !677
  %50 = add i64 %42, 8
  %51 = and i64 %50, 4294967288
  %52 = lshr exact i64 %51, 3
  %53 = getelementptr inbounds nuw i8, ptr %6, i64 %52
  store i8 0, ptr %53, align 1, !tbaa !7
  %54 = add i64 %8, %4
  %55 = add i64 %3, 1
  %56 = icmp ugt i64 %54, %55
  br i1 %56, label %57, label %63

57:                                               ; preds = %_ZL38BrotliStoreUncompressedMetaBlockHeadermPmPh.exit
  %58 = sub i64 %55, %8
  %59 = getelementptr inbounds nuw i8, ptr %1, i64 %8
  tail call void @llvm.memcpy.p0.p0.i64(ptr nonnull align 1 %53, ptr align 1 %59, i64 %58, i1 false)
  %60 = shl i64 %58, 3
  %61 = add i64 %51, %60
  %62 = sub i64 %4, %58
  %.pre = lshr exact i64 %61, 3
  br label %63

63:                                               ; preds = %57, %_ZL38BrotliStoreUncompressedMetaBlockHeadermPmPh.exit
  %.pre-phi = phi i64 [ %.pre, %57 ], [ %52, %_ZL38BrotliStoreUncompressedMetaBlockHeadermPmPh.exit ]
  %64 = phi i64 [ %61, %57 ], [ %51, %_ZL38BrotliStoreUncompressedMetaBlockHeadermPmPh.exit ]
  %.036 = phi i64 [ 0, %57 ], [ %8, %_ZL38BrotliStoreUncompressedMetaBlockHeadermPmPh.exit ]
  %.0 = phi i64 [ %62, %57 ], [ %4, %_ZL38BrotliStoreUncompressedMetaBlockHeadermPmPh.exit ]
  %65 = getelementptr inbounds nuw i8, ptr %6, i64 %.pre-phi
  %66 = getelementptr inbounds nuw i8, ptr %1, i64 %.036
  tail call void @llvm.memcpy.p0.p0.i64(ptr align 1 %65, ptr align 1 %66, i64 %.0, i1 false)
  %67 = shl i64 %.0, 3
  %68 = add i64 %64, %67
  store i64 %68, ptr %5, align 8, !tbaa !3
  %69 = lshr i64 %68, 3
  %70 = getelementptr inbounds nuw i8, ptr %6, i64 %69
  store i8 0, ptr %70, align 1, !tbaa !7
  %.not = icmp eq i32 %0, 0
  br i1 %.not, label %86, label %71

71:                                               ; preds = %63
  %72 = and i64 %64, 7
  %73 = shl nuw nsw i64 1, %72
  store i64 %73, ptr %70, align 1, !noalias !679
  %74 = add i64 %68, 1
  %75 = lshr i64 %74, 3
  %76 = getelementptr inbounds nuw i8, ptr %6, i64 %75
  %77 = load i8, ptr %76, align 1, !tbaa !7, !alias.scope !682, !noalias !685
  %78 = zext i8 %77 to i64
  %79 = and i64 %74, 7
  %80 = shl nuw nsw i64 1, %79
  %81 = or i64 %80, %78
  store i64 %81, ptr %76, align 1, !noalias !685
  %82 = add i64 %68, 9
  %83 = and i64 %82, 4294967288
  store i64 %83, ptr %5, align 8, !tbaa !3
  %84 = lshr exact i64 %83, 3
  %85 = getelementptr inbounds nuw i8, ptr %6, i64 %84
  store i8 0, ptr %85, align 1, !tbaa !7
  br label %86

86:                                               ; preds = %71, %63
  ret void
}